target datalayout = "e-m:e-p270:32:32-p271:32:32-p272:64:64-i64:64-i128:128-f80:128-n8:16:32:64-S128"
target triple = "x86_64-pc-linux-gnu"

%struct._lv_indev_t = type { i32, ptr, i32, i32, i32, i8, i32, i32, ptr, ptr, ptr, ptr, i8, i8, i8, i8, i16, i16, i32, %struct.anon, %struct.anon.0, ptr, ptr, ptr, %struct.lv_event_list_t, ptr, i32, ptr }
%struct.anon = type { %struct.lv_point_t, %struct.lv_point_t, %struct.lv_point_t, %struct.lv_point_t, %struct.lv_point_t, %struct.lv_point_t, %struct.lv_point_t, ptr, ptr, ptr, ptr, ptr, %struct.lv_area_t, %struct.lv_point_t, i32, i8, %struct.lv_point_t, i32, i16 }
%struct.lv_area_t = type { i32, i32, i32, i32 }
%struct.lv_point_t = type { i32, i32 }
%struct.anon.0 = type { i32, i32 }
%struct.lv_event_list_t = type { %struct._lv_array_t, i8 }
%struct._lv_array_t = type { ptr, i32, i32, i32, i8 }

; Function Attrs: nounwind uwtable
define i32 @lv_indev_get_state(ptr noundef %0) #0 {
  %2 = alloca i32, align 4
  %3 = alloca ptr, align 8
  store ptr %0, ptr %3, align 8, !tbaa !8
  %4 = load ptr, ptr %3, align 8, !tbaa !8
  %5 = icmp eq ptr %4, null
  br i1 %5, label %6, label %7

6:                                                ; preds = %1
  store i32 0, ptr %2, align 4
  br label %11

7:                                                ; preds = %1
  %8 = load ptr, ptr %3, align 8, !tbaa !8
  %9 = getelementptr inbounds nuw %struct._lv_indev_t, ptr %8, i32 0, i32 2
  %10 = load i32, ptr %9, align 8, !tbaa !78
  store i32 %10, ptr %2, align 4
  br label %11

11:                                               ; preds = %7, %6
  %12 = load i32, ptr %2, align 4
  ret i32 %12
}